target datalayout = "e-m:e-p270:32:32-p271:32:32-p272:64:64-i64:64-i128:128-f80:128-n8:16:32:64-S128"
target triple = "x86_64-pc-linux-gnu"

%"class.vcg::Point3" = type { [3 x float] }
%"class.vcg::TrackMode" = type { ptr }
%"class.vcg::NavigatorWasdMode" = type { %"class.vcg::TrackMode", float, float, %"class.vcg::Point3", float, float, float, i32, i32, float, float, float, float, float, float, float, float }

; Function Attrs: mustprogress uwtable
define linkonce_odr { <2 x float>, float } @_ZNK3vcg6Point3IfEmlEf(ptr noundef nonnull align 4 dereferenceable(12) %0, float noundef %1) #3 comdat align 2 {
  %3 = alloca %"class.vcg::Point3", align 4
  %4 = alloca ptr, align 8
  %5 = alloca float, align 4
  %6 = alloca { <2 x float>, float }, align 8
  store ptr %0, ptr %4, align 8
  store float %1, ptr %5, align 4
  %7 = load ptr, ptr %4, align 8
  %8 = getelementptr inbounds %"class.vcg::Point3", ptr %7, i32 0, i32 0
  %9 = getelementptr inbounds [3 x float], ptr %8, i64 0, i64 0
  %10 = load float, ptr %9, align 4
  %11 = load float, ptr %5, align 4
  %12 = fmul float %10, %11
  %13 = getelementptr inbounds %"class.vcg::Point3", ptr %7, i32 0, i32 0
  %14 = getelementptr inbounds [3 x float], ptr %13, i64 0, i64 1
  %15 = load float, ptr %14, align 4
  %16 = load float, ptr %5, align 4
  %17 = fmul float %15, %16
  %18 = getelementptr inbounds %"class.vcg::Point3", ptr %7, i32 0, i32 0
  %19 = getelementptr inbounds [3 x float], ptr %18, i64 0, i64 2
  %20 = load float, ptr %19, align 4
  %21 = load float, ptr %5, align 4
  %22 = fmul float %20, %21
  call void @_ZN3vcg6Point3IfEC2Efff(ptr noundef nonnull align 4 dereferenceable(12) %3, float noundef %12, float noundef %17, float noundef %22)
  %23 = getelementptr inbounds %"class.vcg::Point3", ptr %3, i32 0, i32 0
  call void @llvm.memcpy.p0.p0.i64(ptr align 8 %6, ptr align 4 %23, i64 12, i1 false)
  %24 = load { <2 x float>, float }, ptr %6, align 8
  ret { <2 x float>, float } %24
}

; Function Attrs: mustprogress nounwind uwtable
define linkonce_odr void @_ZN3vcg6Point3IfEC2Efff(ptr noundef nonnull align 4 dereferenceable(12) %0, float noundef %1, float noundef %2, float noundef %3) unnamed_addr #0 comdat align 2 {
  %5 = alloca ptr, align 8
  %6 = alloca float, align 4
  %7 = alloca float, align 4
  %8 = alloca float, align 4
  store ptr %0, ptr %5, align 8
  store float %1, ptr %6, align 4
  store float %2, ptr %7, align 4
  store float %3, ptr %8, align 4
  %9 = load ptr, ptr %5, align 8
  %10 = load float, ptr %6, align 4
  %11 = getelementptr inbounds %"class.vcg::Point3", ptr %9, i32 0, i32 0
  %12 = getelementptr inbounds [3 x float], ptr %11, i64 0, i64 0
  store float %10, ptr %12, align 4
  %13 = load float, ptr %7, align 4
  %14 = getelementptr inbounds %"class.vcg::Point3", ptr %9, i32 0, i32 0
  %15 = getelementptr inbounds [3 x float], ptr %14, i64 0, i64 1
  store float %13, ptr %15, align 4
  %16 = load float, ptr %8, align 4
  %17 = getelementptr inbounds %"class.vcg::Point3", ptr %9, i32 0, i32 0
  %18 = getelementptr inbounds [3 x float], ptr %17, i64 0, i64 2
  store float %16, ptr %18, align 4
  ret void
}

; Function Attrs: mustprogress uwtable
define void @_ZN3vcg17NavigatorWasdMode5ApplyEPNS_9TrackballEf(ptr noundef nonnull align 8 dereferenceable(80) %0, ptr noundef %1, float noundef %2) unnamed_addr #2 align 2 {
  %4 = alloca ptr, align 8
  %5 = alloca ptr, align 8
  %6 = alloca float, align 4
  %7 = alloca %"class.vcg::Point3", align 4
  %8 = alloca %"class.vcg::Point3", align 4
  %9 = alloca { <2 x float>, float }, align 8
  %10 = alloca { <2 x float>, float }, align 4
  store ptr %0, ptr %4, align 8
  store ptr %1, ptr %5, align 8
  store float %2, ptr %6, align 4
  %11 = load ptr, ptr %4, align 8
  %12 = load ptr, ptr %5, align 8
  %13 = getelementptr inbounds %"class.vcg::NavigatorWasdMode", ptr %11, i32 0, i32 14
  %14 = load float, ptr %13, align 4
  call void @_ZN3vcg6Point3IfEC2Efff(ptr noundef nonnull align 4 dereferenceable(12) %8, float noundef 0.000000e+00, float noundef %14, float noundef 0.000000e+00)
  %15 = load float, ptr %6, align 4
  %16 = fneg float %15
  %17 = fmul float %16, 1.000000e+02
  %18 = call { <2 x float>, float } @_ZNK3vcg6Point3IfEmlEf(ptr noundef nonnull align 4 dereferenceable(12) %8, float noundef %17)
  %19 = getelementptr inbounds %"class.vcg::Point3", ptr %7, i32 0, i32 0
  store { <2 x float>, float } %18, ptr %9, align 8
  call void @llvm.memcpy.p0.p0.i64(ptr align 4 %19, ptr align 8 %9, i64 12, i1 false)
  call void @llvm.memcpy.p0.p0.i64(ptr align 4 %10, ptr align 4 %7, i64 12, i1 false)
  %20 = getelementptr inbounds { <2 x float>, float }, ptr %10, i32 0, i32 0
  %21 = load <2 x float>, ptr %20, align 4
  %22 = getelementptr inbounds { <2 x float>, float }, ptr %10, i32 0, i32 1
  %23 = load float, ptr %22, align 4
  call void @_ZN3vcg9Trackball9TranslateENS_6Point3IfEE(ptr noundef nonnull align 8 dereferenceable(597) %12, <2 x float> %21, float %23)
  ret void
}