; Function Attrs: mustprogress uwtable
define void @_ZN3vcg17NavigatorWasdMode5ApplyEPNS_9TrackballEf(ptr nocapture noundef nonnull readonly align 8 dereferenceable(80) %0, ptr noundef nonnull %1, float noundef %2) unnamed_addr #3 align 2 {
  %4 = getelementptr inbounds i8, ptr %0, i64 68
  %5 = load float, ptr %4, align 4
  %6 = fmul float %2, -1.000000e+02
  %7 = insertelement <2 x float> poison, float %6, i64 0
  %8 = shufflevector <2 x float> %7, <2 x float> poison, <2 x i32> zeroinitializer
  %9 = insertelement <2 x float> <float 0.000000e+00, float poison>, float %5, i64 1
  %10 = fmul <2 x float> %8, %9
  %11 = extractelement <2 x float> %10, i64 0
  tail call void @_ZN3vcg9Trackball9TranslateENS_6Point3IfEE(ptr noundef nonnull align 8 dereferenceable(597) %1, <2 x float> %10, float %11)
  ret void
}